target datalayout = "e-m:e-p270:32:32-p271:32:32-p272:64:64-i64:64-i128:128-f80:128-n8:16:32:64-S128"
target triple = "x86_64-pc-linux-gnu"

%struct.Vec_Int_t_ = type { i32, i32, ptr }

@.str.1 = private unnamed_addr constant [2 x i8] c"\0A\00", align 1
@.str.15 = private unnamed_addr constant [3 x i8] c"%d\00", align 1
@__const.Ifd_ManDsdTest4.pPerm = private unnamed_addr constant [6 x i32] [i32 0, i32 1, i32 2, i32 3, i32 4, i32 5], align 16

; Function Attrs: inlinehint nounwind uwtable
define internal void @Vec_IntFree(ptr noundef %0) #3 {
  %2 = alloca ptr, align 8
  store ptr %0, ptr %2, align 8, !tbaa !28
  %3 = load ptr, ptr %2, align 8, !tbaa !28
  %4 = getelementptr inbounds nuw %struct.Vec_Int_t_, ptr %3, i32 0, i32 2
  %5 = load ptr, ptr %4, align 8, !tbaa !33
  %6 = icmp ne ptr %5, null
  br i1 %6, label %7, label %13

7:                                                ; preds = %1
  %8 = load ptr, ptr %2, align 8, !tbaa !28
  %9 = getelementptr inbounds nuw %struct.Vec_Int_t_, ptr %8, i32 0, i32 2
  %10 = load ptr, ptr %9, align 8, !tbaa !33
  call void @free(ptr noundef %10) #12
  %11 = load ptr, ptr %2, align 8, !tbaa !28
  %12 = getelementptr inbounds nuw %struct.Vec_Int_t_, ptr %11, i32 0, i32 2
  store ptr null, ptr %12, align 8, !tbaa !33
  br label %14

13:                                               ; preds = %1
  br label %14

14:                                               ; preds = %13, %7
  %15 = load ptr, ptr %2, align 8, !tbaa !28
  %16 = icmp ne ptr %15, null
  br i1 %16, label %17, label %19

17:                                               ; preds = %14
  %18 = load ptr, ptr %2, align 8, !tbaa !28
  call void @free(ptr noundef %18) #12
  store ptr null, ptr %2, align 8, !tbaa !28
  br label %20

19:                                               ; preds = %14
  br label %20

20:                                               ; preds = %19, %17
  ret void
}

; Function Attrs: nounwind uwtable
define void @Ifd_ManDsdPermPrint(ptr noundef %0, i32 noundef %1) #0 {
  %3 = alloca ptr, align 8
  %4 = alloca i32, align 4
  %5 = alloca i32, align 4
  store ptr %0, ptr %3, align 8, !tbaa !51
  store i32 %1, ptr %4, align 4, !tbaa !24
  call void @llvm.lifetime.start.p0(i64 4, ptr %5) #12
  store i32 0, ptr %5, align 4, !tbaa !24
  br label %6

6:                                                ; preds = %17, %2
  %7 = load i32, ptr %5, align 4, !tbaa !24
  %8 = load i32, ptr %4, align 4, !tbaa !24
  %9 = icmp slt i32 %7, %8
  br i1 %9, label %10, label %20

10:                                               ; preds = %6
  %11 = load ptr, ptr %3, align 8, !tbaa !51
  %12 = load i32, ptr %5, align 4, !tbaa !24
  %13 = sext i32 %12 to i64
  %14 = getelementptr inbounds i32, ptr %11, i64 %13
  %15 = load i32, ptr %14, align 4, !tbaa !24
  %16 = call i32 (ptr, ...) @printf(ptr noundef @.str.15, i32 noundef %15)
  br label %17

17:                                               ; preds = %10
  %18 = load i32, ptr %5, align 4, !tbaa !24
  %19 = add nsw i32 %18, 1
  store i32 %19, ptr %5, align 4, !tbaa !24
  br label %6, !llvm.loop !98

20:                                               ; preds = %6
  %21 = call i32 (ptr, ...) @printf(ptr noundef @.str.1)
  call void @llvm.lifetime.end.p0(i64 4, ptr %5) #12
  ret void
}

; Function Attrs: inlinehint nounwind uwtable
define internal i32 @Vec_IntEntry(ptr noundef %0, i32 noundef %1) #3 {
  %3 = alloca ptr, align 8
  %4 = alloca i32, align 4
  store ptr %0, ptr %3, align 8, !tbaa !28
  store i32 %1, ptr %4, align 4, !tbaa !24
  %5 = load ptr, ptr %3, align 8, !tbaa !28
  %6 = getelementptr inbounds nuw %struct.Vec_Int_t_, ptr %5, i32 0, i32 2
  %7 = load ptr, ptr %6, align 8, !tbaa !33
  %8 = load i32, ptr %4, align 4, !tbaa !24
  %9 = sext i32 %8 to i64
  %10 = getelementptr inbounds i32, ptr %7, i64 %9
  %11 = load i32, ptr %10, align 4, !tbaa !24
  ret i32 %11
}

; Function Attrs: inlinehint nounwind uwtable
define internal i32 @Vec_IntSize(ptr noundef %0) #3 {
  %2 = alloca ptr, align 8
  store ptr %0, ptr %2, align 8, !tbaa !28
  %3 = load ptr, ptr %2, align 8, !tbaa !28
  %4 = getelementptr inbounds nuw %struct.Vec_Int_t_, ptr %3, i32 0, i32 1
  %5 = load i32, ptr %4, align 4, !tbaa !29
  ret i32 %5
}

; Function Attrs: nounwind uwtable
define i32 @Ifd_ManDsdTest4() #0 {
  %1 = alloca [6 x i32], align 16
  %2 = alloca ptr, align 8
  %3 = alloca i32, align 4
  %4 = alloca i32, align 4
  %5 = alloca i32, align 4
  call void @llvm.lifetime.start.p0(i64 24, ptr %1) #12
  call void @llvm.memcpy.p0.p0.i64(ptr align 16 %1, ptr align 16 @__const.Ifd_ManDsdTest4.pPerm, i64 24, i1 false)
  call void @llvm.lifetime.start.p0(i64 8, ptr %2) #12
  %6 = call ptr @Ifd_ManDsdPermJT(i32 noundef 6)
  store ptr %6, ptr %2, align 8, !tbaa !28
  call void @llvm.lifetime.start.p0(i64 4, ptr %3) #12
  call void @llvm.lifetime.start.p0(i64 4, ptr %4) #12
  store i32 0, ptr %3, align 4, !tbaa !24
  br label %7

7:                                                ; preds = %37, %0
  %8 = load i32, ptr %3, align 4, !tbaa !24
  %9 = load ptr, ptr %2, align 8, !tbaa !28
  %10 = call i32 @Vec_IntSize(ptr noundef %9)
  %11 = icmp slt i32 %8, %10
  br i1 %11, label %12, label %16

12:                                               ; preds = %7
  %13 = load ptr, ptr %2, align 8, !tbaa !28
  %14 = load i32, ptr %3, align 4, !tbaa !24
  %15 = call i32 @Vec_IntEntry(ptr noundef %13, i32 noundef %14)
  store i32 %15, ptr %4, align 4, !tbaa !24
  br label %16

16:                                               ; preds = %12, %7
  %17 = phi i1 [ false, %7 ], [ true, %12 ]
  br i1 %17, label %18, label %40

18:                                               ; preds = %16
  call void @llvm.lifetime.start.p0(i64 4, ptr %5) #12
  %19 = load i32, ptr %4, align 4, !tbaa !24
  %20 = sext i32 %19 to i64
  %21 = getelementptr inbounds [6 x i32], ptr %1, i64 0, i64 %20
  %22 = load i32, ptr %21, align 4, !tbaa !24
  store i32 %22, ptr %5, align 4, !tbaa !24
  %23 = load i32, ptr %4, align 4, !tbaa !24
  %24 = add nsw i32 %23, 1
  %25 = sext i32 %24 to i64
  %26 = getelementptr inbounds [6 x i32], ptr %1, i64 0, i64 %25
  %27 = load i32, ptr %26, align 4, !tbaa !24
  %28 = load i32, ptr %4, align 4, !tbaa !24
  %29 = sext i32 %28 to i64
  %30 = getelementptr inbounds [6 x i32], ptr %1, i64 0, i64 %29
  store i32 %27, ptr %30, align 4, !tbaa !24
  %31 = load i32, ptr %5, align 4, !tbaa !24
  %32 = load i32, ptr %4, align 4, !tbaa !24
  %33 = add nsw i32 %32, 1
  %34 = sext i32 %33 to i64
  %35 = getelementptr inbounds [6 x i32], ptr %1, i64 0, i64 %34
  store i32 %31, ptr %35, align 4, !tbaa !24
  call void @llvm.lifetime.end.p0(i64 4, ptr %5) #12
  %36 = getelementptr inbounds [6 x i32], ptr %1, i64 0, i64 0
  call void @Ifd_ManDsdPermPrint(ptr noundef %36, i32 noundef 6)
  br label %37

37:                                               ; preds = %18
  %38 = load i32, ptr %3, align 4, !tbaa !24
  %39 = add nsw i32 %38, 1
  store i32 %39, ptr %3, align 4, !tbaa !24
  br label %7, !llvm.loop !103

40:                                               ; preds = %16
  %41 = load ptr, ptr %2, align 8, !tbaa !28
  call void @Vec_IntFree(ptr noundef %41)
  call void @llvm.lifetime.end.p0(i64 4, ptr %4) #12
  call void @llvm.lifetime.end.p0(i64 4, ptr %3) #12
  call void @llvm.lifetime.end.p0(i64 8, ptr %2) #12
  call void @llvm.lifetime.end.p0(i64 24, ptr %1) #12
  ret i32 1
}