; Function Attrs: nounwind uwtable
define noundef i32 @Ifd_ManDsdTest4() local_unnamed_addr #5 {
  %1 = alloca [6 x i32], align 16
  call void @llvm.lifetime.start.p0(i64 24, ptr nonnull %1) #28
  call void @llvm.memcpy.p0.p0.i64(ptr noundef nonnull align 16 dereferenceable(24) %1, ptr noundef nonnull align 16 dereferenceable(24) @__const.Ifd_ManDsdTest4.pPerm, i64 24, i1 false)
  %2 = tail call ptr @Ifd_ManDsdPermJT(i32 noundef 6)
  %3 = getelementptr i8, ptr %2, i64 4
  %.val = load i32, ptr %3, align 4, !tbaa !18
  %4 = icmp sgt i32 %.val, 0
  %5 = getelementptr i8, ptr %2, i64 8
  %.val10 = load ptr, ptr %5, align 8, !tbaa !22
  br i1 %4, label %.lr.ph, label %.critedge

.lr.ph:                                           ; preds = %0
  %wide.trip.count = zext nneg i32 %.val to i64
  br label %6

6:                                                ; preds = %.lr.ph, %Ifd_ManDsdPermPrint.exit
  %indvars.iv = phi i64 [ 0, %.lr.ph ], [ %indvars.iv.next, %Ifd_ManDsdPermPrint.exit ]
  %7 = getelementptr inbounds nuw i32, ptr %.val10, i64 %indvars.iv
  %8 = load i32, ptr %7, align 4, !tbaa !37
  %9 = sext i32 %8 to i64
  %10 = getelementptr inbounds [6 x i32], ptr %1, i64 0, i64 %9
  %11 = load i32, ptr %10, align 4, !tbaa !37
  %12 = add nsw i32 %8, 1
  %13 = sext i32 %12 to i64
  %14 = getelementptr inbounds [6 x i32], ptr %1, i64 0, i64 %13
  %15 = load i32, ptr %14, align 4, !tbaa !37
  store i32 %15, ptr %10, align 4, !tbaa !37
  store i32 %11, ptr %14, align 4, !tbaa !37
  br label %.lr.ph.i

.lr.ph.i:                                         ; preds = %.lr.ph.i, %6
  %indvars.iv.i = phi i64 [ 0, %6 ], [ %indvars.iv.next.i, %.lr.ph.i ]
  %16 = getelementptr inbounds nuw i32, ptr %1, i64 %indvars.iv.i
  %17 = load i32, ptr %16, align 4, !tbaa !37
  %18 = tail call i32 (ptr, ...) @printf(ptr noundef nonnull dereferenceable(1) @.str.15, i32 noundef %17)
  %indvars.iv.next.i = add nuw nsw i64 %indvars.iv.i, 1
  %exitcond.not.i = icmp eq i64 %indvars.iv.next.i, 6
  br i1 %exitcond.not.i, label %Ifd_ManDsdPermPrint.exit, label %.lr.ph.i, !llvm.loop !84

Ifd_ManDsdPermPrint.exit:                         ; preds = %.lr.ph.i
  %putchar.i = tail call i32 @putchar(i32 10)
  %indvars.iv.next = add nuw nsw i64 %indvars.iv, 1
  %exitcond.not = icmp eq i64 %indvars.iv.next, %wide.trip.count
  br i1 %exitcond.not, label %.critedge, label %6, !llvm.loop !89

.critedge:                                        ; preds = %Ifd_ManDsdPermPrint.exit, %0
  %.not.i = icmp eq ptr %.val10, null
  br i1 %.not.i, label %Vec_IntFree.exit, label %19

19:                                               ; preds = %.critedge
  tail call void @free(ptr noundef nonnull %.val10) #28
  br label %Vec_IntFree.exit

Vec_IntFree.exit:                                 ; preds = %.critedge, %19
  tail call void @free(ptr noundef nonnull %2) #28
  call void @llvm.lifetime.end.p0(i64 24, ptr nonnull %1) #28
  ret i32 1
}